target datalayout = "e-m:e-p270:32:32-p271:32:32-p272:64:64-i64:64-i128:128-f80:128-n8:16:32:64-S128"
target triple = "x86_64-pc-linux-gnu"

%struct.FunctionCallInfoBaseData = type { ptr, ptr, ptr, i32, i8, i16, [0 x %struct.NullableDatum] }
%struct.NullableDatum = type { i64, i8 }
%struct.anon = type { i32, [0 x i8] }
%struct.varattrib_1b = type { i8, [0 x i8] }
%struct.varattrib_1b_e = type { i8, i8, [0 x i8] }
%struct.pg_locale_struct = type { i8, i8, i8, i8, i8, ptr, %union.anon }
%union.anon = type { %struct.anon.1 }
%struct.anon.1 = type { ptr, i8 }

@.str.1 = private unnamed_addr constant [10 x i8] c"varchar.c\00", align 1
@.str.5 = private unnamed_addr constant [56 x i8] c"Use the COLLATE clause to set the collation explicitly.\00", align 1
@.str.11 = private unnamed_addr constant [65 x i8] c"could not determine which collation to use for string comparison\00", align 1
@__func__.check_collation_set = private unnamed_addr constant [20 x i8] c"check_collation_set\00", align 1

; Function Attrs: nounwind uwtable
define dso_local i32 @bpchartruelen(ptr noundef %0, i32 noundef %1) #0 {
  %3 = alloca ptr, align 8
  %4 = alloca i32, align 4
  %5 = alloca i32, align 4
  store ptr %0, ptr %3, align 8
  store i32 %1, ptr %4, align 4
  call void @llvm.lifetime.start.p0(i64 4, ptr %5) #8
  %6 = load i32, ptr %4, align 4
  %7 = sub i32 %6, 1
  store i32 %7, ptr %5, align 4
  br label %8

8:                                                ; preds = %21, %2
  %9 = load i32, ptr %5, align 4
  %10 = icmp sge i32 %9, 0
  br i1 %10, label %11, label %24

11:                                               ; preds = %8
  %12 = load ptr, ptr %3, align 8
  %13 = load i32, ptr %5, align 4
  %14 = sext i32 %13 to i64
  %15 = getelementptr inbounds i8, ptr %12, i64 %14
  %16 = load i8, ptr %15, align 1
  %17 = sext i8 %16 to i32
  %18 = icmp ne i32 %17, 32
  br i1 %18, label %19, label %20

19:                                               ; preds = %11
  br label %24

20:                                               ; preds = %11
  br label %21

21:                                               ; preds = %20
  %22 = load i32, ptr %5, align 4
  %23 = add i32 %22, -1
  store i32 %23, ptr %5, align 4
  br label %8, !llvm.loop !12

24:                                               ; preds = %19, %8
  %25 = load i32, ptr %5, align 4
  %26 = add i32 %25, 1
  call void @llvm.lifetime.end.p0(i64 4, ptr %5) #8
  ret i32 %26
}

; Function Attrs: inlinehint nounwind uwtable
define internal i64 @BoolGetDatum(i1 noundef zeroext %0) #2 {
  %2 = alloca i8, align 1
  %3 = zext i1 %0 to i8
  store i8 %3, ptr %2, align 1
  %4 = load i8, ptr %2, align 1, !range !6, !noundef !7
  %5 = trunc i8 %4 to i1
  %6 = select i1 %5, i32 1, i32 0
  %7 = sext i32 %6 to i64
  ret i64 %7
}

; Function Attrs: inlinehint nounwind uwtable
define internal i32 @bcTruelen(ptr noundef %0) #2 {
  %2 = alloca ptr, align 8
  store ptr %0, ptr %2, align 8
  %3 = load ptr, ptr %2, align 8
  %4 = getelementptr inbounds nuw %struct.varattrib_1b, ptr %3, i32 0, i32 0
  %5 = load i8, ptr %4, align 1
  %6 = zext i8 %5 to i32
  %7 = and i32 %6, 1
  %8 = icmp eq i32 %7, 1
  br i1 %8, label %9, label %13

9:                                                ; preds = %1
  %10 = load ptr, ptr %2, align 8
  %11 = getelementptr inbounds nuw %struct.varattrib_1b, ptr %10, i32 0, i32 1
  %12 = getelementptr inbounds [0 x i8], ptr %11, i64 0, i64 0
  br label %17

13:                                               ; preds = %1
  %14 = load ptr, ptr %2, align 8
  %15 = getelementptr inbounds nuw %struct.anon, ptr %14, i32 0, i32 1
  %16 = getelementptr inbounds [0 x i8], ptr %15, i64 0, i64 0
  br label %17

17:                                               ; preds = %13, %9
  %18 = phi ptr [ %12, %9 ], [ %16, %13 ]
  %19 = load ptr, ptr %2, align 8
  %20 = getelementptr inbounds nuw %struct.varattrib_1b, ptr %19, i32 0, i32 0
  %21 = load i8, ptr %20, align 1
  %22 = zext i8 %21 to i32
  %23 = icmp eq i32 %22, 1
  br i1 %23, label %24, label %52

24:                                               ; preds = %17
  %25 = load ptr, ptr %2, align 8
  %26 = getelementptr inbounds nuw %struct.varattrib_1b_e, ptr %25, i32 0, i32 1
  %27 = load i8, ptr %26, align 1
  %28 = zext i8 %27 to i32
  %29 = icmp eq i32 %28, 1
  br i1 %29, label %30, label %31

30:                                               ; preds = %24
  br label %48

31:                                               ; preds = %24
  %32 = load ptr, ptr %2, align 8
  %33 = getelementptr inbounds nuw %struct.varattrib_1b_e, ptr %32, i32 0, i32 1
  %34 = load i8, ptr %33, align 1
  %35 = zext i8 %34 to i32
  %36 = and i32 %35, -2
  %37 = icmp eq i32 %36, 2
  br i1 %37, label %38, label %39

38:                                               ; preds = %31
  br label %46

39:                                               ; preds = %31
  %40 = load ptr, ptr %2, align 8
  %41 = getelementptr inbounds nuw %struct.varattrib_1b_e, ptr %40, i32 0, i32 1
  %42 = load i8, ptr %41, align 1
  %43 = zext i8 %42 to i32
  %44 = icmp eq i32 %43, 18
  %45 = select i1 %44, i64 16, i64 0
  br label %46

46:                                               ; preds = %39, %38
  %47 = phi i64 [ 8, %38 ], [ %45, %39 ]
  br label %48

48:                                               ; preds = %46, %30
  %49 = phi i64 [ 8, %30 ], [ %47, %46 ]
  %50 = add i64 2, %49
  %51 = sub i64 %50, 2
  br label %78

52:                                               ; preds = %17
  %53 = load ptr, ptr %2, align 8
  %54 = getelementptr inbounds nuw %struct.varattrib_1b, ptr %53, i32 0, i32 0
  %55 = load i8, ptr %54, align 1
  %56 = zext i8 %55 to i32
  %57 = and i32 %56, 1
  %58 = icmp eq i32 %57, 1
  br i1 %58, label %59, label %68

59:                                               ; preds = %52
  %60 = load ptr, ptr %2, align 8
  %61 = getelementptr inbounds nuw %struct.varattrib_1b, ptr %60, i32 0, i32 0
  %62 = load i8, ptr %61, align 1
  %63 = zext i8 %62 to i32
  %64 = ashr i32 %63, 1
  %65 = and i32 %64, 127
  %66 = sext i32 %65 to i64
  %67 = sub i64 %66, 1
  br label %76

68:                                               ; preds = %52
  %69 = load ptr, ptr %2, align 8
  %70 = getelementptr inbounds nuw %struct.anon, ptr %69, i32 0, i32 0
  %71 = load i32, ptr %70, align 4
  %72 = lshr i32 %71, 2
  %73 = and i32 %72, 1073741823
  %74 = sub i32 %73, 4
  %75 = zext i32 %74 to i64
  br label %76

76:                                               ; preds = %68, %59
  %77 = phi i64 [ %67, %59 ], [ %75, %68 ]
  br label %78

78:                                               ; preds = %76, %48
  %79 = phi i64 [ %51, %48 ], [ %77, %76 ]
  %80 = trunc i64 %79 to i32
  %81 = call i32 @bpchartruelen(ptr noundef %18, i32 noundef %80)
  ret i32 %81
}

; Function Attrs: nounwind uwtable
define internal void @check_collation_set(i32 noundef %0) #0 {
  %2 = alloca i32, align 4
  store i32 %0, ptr %2, align 4
  %3 = load i32, ptr %2, align 4
  %4 = icmp ne i32 %3, 0
  br i1 %4, label %17, label %5

5:                                                ; preds = %1
  br label %6

6:                                                ; preds = %5
  br i1 true, label %7, label %9

7:                                                ; preds = %6
  %8 = call zeroext i1 @errstart_cold(i32 noundef 21, ptr noundef null) #10
  br i1 %8, label %11, label %15

9:                                                ; preds = %6
  %10 = call zeroext i1 @errstart(i32 noundef 21, ptr noundef null)
  br i1 %10, label %11, label %15

11:                                               ; preds = %9, %7
  %12 = call i32 @errcode(i32 noundef 34209924)
  %13 = call i32 (ptr, ...) @errmsg(ptr noundef @.str.11)
  %14 = call i32 (ptr, ...) @errhint(ptr noundef @.str.5)
  call void @errfinish(ptr noundef @.str.1, i32 noundef 738, ptr noundef @__func__.check_collation_set)
  br label %15

15:                                               ; preds = %11, %9, %7
  unreachable

16:                                               ; No predecessors!
  br label %17

17:                                               ; preds = %16, %1
  ret void
}

; Function Attrs: inlinehint nounwind uwtable
define internal ptr @DatumGetPointer(i64 noundef %0) #2 {
  %2 = alloca i64, align 8
  store i64 %0, ptr %2, align 8
  %3 = load i64, ptr %2, align 8
  %4 = inttoptr i64 %3 to ptr
  ret ptr %4
}

; Function Attrs: nounwind uwtable
define dso_local i64 @bpcharne(ptr noundef %0) #0 {
  %2 = alloca ptr, align 8
  %3 = alloca ptr, align 8
  %4 = alloca ptr, align 8
  %5 = alloca i32, align 4
  %6 = alloca i32, align 4
  %7 = alloca i8, align 1
  %8 = alloca i32, align 4
  %9 = alloca ptr, align 8
  store ptr %0, ptr %2, align 8
  call void @llvm.lifetime.start.p0(i64 8, ptr %3) #8
  %10 = load ptr, ptr %2, align 8
  %11 = getelementptr inbounds nuw %struct.FunctionCallInfoBaseData, ptr %10, i32 0, i32 6
  %12 = getelementptr inbounds [0 x %struct.NullableDatum], ptr %11, i64 0, i64 0
  %13 = getelementptr inbounds nuw %struct.NullableDatum, ptr %12, i32 0, i32 0
  %14 = load i64, ptr %13, align 8
  %15 = call ptr @DatumGetPointer(i64 noundef %14)
  %16 = call ptr @pg_detoast_datum_packed(ptr noundef %15)
  store ptr %16, ptr %3, align 8
  call void @llvm.lifetime.start.p0(i64 8, ptr %4) #8
  %17 = load ptr, ptr %2, align 8
  %18 = getelementptr inbounds nuw %struct.FunctionCallInfoBaseData, ptr %17, i32 0, i32 6
  %19 = getelementptr inbounds [0 x %struct.NullableDatum], ptr %18, i64 0, i64 1
  %20 = getelementptr inbounds nuw %struct.NullableDatum, ptr %19, i32 0, i32 0
  %21 = load i64, ptr %20, align 8
  %22 = call ptr @DatumGetPointer(i64 noundef %21)
  %23 = call ptr @pg_detoast_datum_packed(ptr noundef %22)
  store ptr %23, ptr %4, align 8
  call void @llvm.lifetime.start.p0(i64 4, ptr %5) #8
  call void @llvm.lifetime.start.p0(i64 4, ptr %6) #8
  call void @llvm.lifetime.start.p0(i64 1, ptr %7) #8
  call void @llvm.lifetime.start.p0(i64 4, ptr %8) #8
  %24 = load ptr, ptr %2, align 8
  %25 = getelementptr inbounds nuw %struct.FunctionCallInfoBaseData, ptr %24, i32 0, i32 3
  %26 = load i32, ptr %25, align 8
  store i32 %26, ptr %8, align 4
  call void @llvm.lifetime.start.p0(i64 8, ptr %9) #8
  %27 = load i32, ptr %8, align 4
  call void @check_collation_set(i32 noundef %27)
  %28 = load ptr, ptr %3, align 8
  %29 = call i32 @bcTruelen(ptr noundef %28)
  store i32 %29, ptr %5, align 4
  %30 = load ptr, ptr %4, align 8
  %31 = call i32 @bcTruelen(ptr noundef %30)
  store i32 %31, ptr %6, align 4
  %32 = load i32, ptr %8, align 4
  %33 = call ptr @pg_newlocale_from_collation(i32 noundef %32)
  store ptr %33, ptr %9, align 8
  %34 = load ptr, ptr %9, align 8
  %35 = getelementptr inbounds nuw %struct.pg_locale_struct, ptr %34, i32 0, i32 1
  %36 = load i8, ptr %35, align 1, !range !6, !noundef !7
  %37 = trunc i8 %36 to i1
  br i1 %37, label %38, label %82

38:                                               ; preds = %1
  %39 = load i32, ptr %5, align 4
  %40 = load i32, ptr %6, align 4
  %41 = icmp ne i32 %39, %40
  br i1 %41, label %42, label %43

42:                                               ; preds = %38
  store i8 1, ptr %7, align 1
  br label %81

43:                                               ; preds = %38
  %44 = load ptr, ptr %3, align 8
  %45 = getelementptr inbounds nuw %struct.varattrib_1b, ptr %44, i32 0, i32 0
  %46 = load i8, ptr %45, align 1
  %47 = zext i8 %46 to i32
  %48 = and i32 %47, 1
  %49 = icmp eq i32 %48, 1
  br i1 %49, label %50, label %54

50:                                               ; preds = %43
  %51 = load ptr, ptr %3, align 8
  %52 = getelementptr inbounds nuw %struct.varattrib_1b, ptr %51, i32 0, i32 1
  %53 = getelementptr inbounds [0 x i8], ptr %52, i64 0, i64 0
  br label %58

54:                                               ; preds = %43
  %55 = load ptr, ptr %3, align 8
  %56 = getelementptr inbounds nuw %struct.anon, ptr %55, i32 0, i32 1
  %57 = getelementptr inbounds [0 x i8], ptr %56, i64 0, i64 0
  br label %58

58:                                               ; preds = %54, %50
  %59 = phi ptr [ %53, %50 ], [ %57, %54 ]
  %60 = load ptr, ptr %4, align 8
  %61 = getelementptr inbounds nuw %struct.varattrib_1b, ptr %60, i32 0, i32 0
  %62 = load i8, ptr %61, align 1
  %63 = zext i8 %62 to i32
  %64 = and i32 %63, 1
  %65 = icmp eq i32 %64, 1
  br i1 %65, label %66, label %70

66:                                               ; preds = %58
  %67 = load ptr, ptr %4, align 8
  %68 = getelementptr inbounds nuw %struct.varattrib_1b, ptr %67, i32 0, i32 1
  %69 = getelementptr inbounds [0 x i8], ptr %68, i64 0, i64 0
  br label %74

70:                                               ; preds = %58
  %71 = load ptr, ptr %4, align 8
  %72 = getelementptr inbounds nuw %struct.anon, ptr %71, i32 0, i32 1
  %73 = getelementptr inbounds [0 x i8], ptr %72, i64 0, i64 0
  br label %74

74:                                               ; preds = %70, %66
  %75 = phi ptr [ %69, %66 ], [ %73, %70 ]
  %76 = load i32, ptr %5, align 4
  %77 = sext i32 %76 to i64
  %78 = call i32 @memcmp(ptr noundef %59, ptr noundef %75, i64 noundef %77) #9
  %79 = icmp ne i32 %78, 0
  %80 = zext i1 %79 to i8
  store i8 %80, ptr %7, align 1
  br label %81

81:                                               ; preds = %74, %42
  br label %121

82:                                               ; preds = %1
  %83 = load ptr, ptr %3, align 8
  %84 = getelementptr inbounds nuw %struct.varattrib_1b, ptr %83, i32 0, i32 0
  %85 = load i8, ptr %84, align 1
  %86 = zext i8 %85 to i32
  %87 = and i32 %86, 1
  %88 = icmp eq i32 %87, 1
  br i1 %88, label %89, label %93

89:                                               ; preds = %82
  %90 = load ptr, ptr %3, align 8
  %91 = getelementptr inbounds nuw %struct.varattrib_1b, ptr %90, i32 0, i32 1
  %92 = getelementptr inbounds [0 x i8], ptr %91, i64 0, i64 0
  br label %97

93:                                               ; preds = %82
  %94 = load ptr, ptr %3, align 8
  %95 = getelementptr inbounds nuw %struct.anon, ptr %94, i32 0, i32 1
  %96 = getelementptr inbounds [0 x i8], ptr %95, i64 0, i64 0
  br label %97

97:                                               ; preds = %93, %89
  %98 = phi ptr [ %92, %89 ], [ %96, %93 ]
  %99 = load i32, ptr %5, align 4
  %100 = load ptr, ptr %4, align 8
  %101 = getelementptr inbounds nuw %struct.varattrib_1b, ptr %100, i32 0, i32 0
  %102 = load i8, ptr %101, align 1
  %103 = zext i8 %102 to i32
  %104 = and i32 %103, 1
  %105 = icmp eq i32 %104, 1
  br i1 %105, label %106, label %110

106:                                              ; preds = %97
  %107 = load ptr, ptr %4, align 8
  %108 = getelementptr inbounds nuw %struct.varattrib_1b, ptr %107, i32 0, i32 1
  %109 = getelementptr inbounds [0 x i8], ptr %108, i64 0, i64 0
  br label %114

110:                                              ; preds = %97
  %111 = load ptr, ptr %4, align 8
  %112 = getelementptr inbounds nuw %struct.anon, ptr %111, i32 0, i32 1
  %113 = getelementptr inbounds [0 x i8], ptr %112, i64 0, i64 0
  br label %114

114:                                              ; preds = %110, %106
  %115 = phi ptr [ %109, %106 ], [ %113, %110 ]
  %116 = load i32, ptr %6, align 4
  %117 = load i32, ptr %8, align 4
  %118 = call i32 @varstr_cmp(ptr noundef %98, i32 noundef %99, ptr noundef %115, i32 noundef %116, i32 noundef %117)
  %119 = icmp ne i32 %118, 0
  %120 = zext i1 %119 to i8
  store i8 %120, ptr %7, align 1
  br label %121

121:                                              ; preds = %114, %81
  br label %122

122:                                              ; preds = %121
  %123 = load ptr, ptr %3, align 8
  %124 = load ptr, ptr %2, align 8
  %125 = getelementptr inbounds nuw %struct.FunctionCallInfoBaseData, ptr %124, i32 0, i32 6
  %126 = getelementptr inbounds [0 x %struct.NullableDatum], ptr %125, i64 0, i64 0
  %127 = getelementptr inbounds nuw %struct.NullableDatum, ptr %126, i32 0, i32 0
  %128 = load i64, ptr %127, align 8
  %129 = call ptr @DatumGetPointer(i64 noundef %128)
  %130 = icmp ne ptr %123, %129
  br i1 %130, label %131, label %133

131:                                              ; preds = %122
  %132 = load ptr, ptr %3, align 8
  call void @pfree(ptr noundef %132)
  br label %133

133:                                              ; preds = %131, %122
  br label %134

134:                                              ; preds = %133
  br label %135

135:                                              ; preds = %134
  br label %136

136:                                              ; preds = %135
  %137 = load ptr, ptr %4, align 8
  %138 = load ptr, ptr %2, align 8
  %139 = getelementptr inbounds nuw %struct.FunctionCallInfoBaseData, ptr %138, i32 0, i32 6
  %140 = getelementptr inbounds [0 x %struct.NullableDatum], ptr %139, i64 0, i64 1
  %141 = getelementptr inbounds nuw %struct.NullableDatum, ptr %140, i32 0, i32 0
  %142 = load i64, ptr %141, align 8
  %143 = call ptr @DatumGetPointer(i64 noundef %142)
  %144 = icmp ne ptr %137, %143
  br i1 %144, label %145, label %147

145:                                              ; preds = %136
  %146 = load ptr, ptr %4, align 8
  call void @pfree(ptr noundef %146)
  br label %147

147:                                              ; preds = %145, %136
  br label %148

148:                                              ; preds = %147
  br label %149

149:                                              ; preds = %148
  %150 = load i8, ptr %7, align 1, !range !6, !noundef !7
  %151 = trunc i8 %150 to i1
  %152 = call i64 @BoolGetDatum(i1 noundef zeroext %151)
  call void @llvm.lifetime.end.p0(i64 8, ptr %9) #8
  call void @llvm.lifetime.end.p0(i64 4, ptr %8) #8
  call void @llvm.lifetime.end.p0(i64 1, ptr %7) #8
  call void @llvm.lifetime.end.p0(i64 4, ptr %6) #8
  call void @llvm.lifetime.end.p0(i64 4, ptr %5) #8
  call void @llvm.lifetime.end.p0(i64 8, ptr %4) #8
  call void @llvm.lifetime.end.p0(i64 8, ptr %3) #8
  ret i64 %152
}